target datalayout = "e-m:e-p270:32:32-p271:32:32-p272:64:64-i64:64-i128:128-f80:128-n8:16:32:64-S128"
target triple = "x86_64-pc-linux-gnu"

%"class.icu_77::UnicodeSetStringSpan" = type { [8 x i8], %"class.icu_77::UnicodeSet", ptr, ptr, ptr, ptr, ptr, i32, i32, i32, i8, [32 x i32] }
%"class.icu_77::UnicodeSet" = type <{ %"class.icu_77::UnicodeFilter", ptr, i32, i32, i8, [7 x i8], ptr, ptr, i32, [4 x i8], ptr, i32, [4 x i8], ptr, ptr, [25 x i32], [4 x i8] }>
%"class.icu_77::UnicodeFilter" = type { %"class.icu_77::UnicodeFunctor", %"class.icu_77::UnicodeMatcher" }
%"class.icu_77::UnicodeFunctor" = type { %"class.icu_77::UObject" }
%"class.icu_77::UObject" = type { ptr }
%"class.icu_77::UnicodeMatcher" = type { ptr }
%"class.icu_77::UVector" = type { %"class.icu_77::UObject", i32, i32, ptr, ptr, ptr }

; Function Attrs: inlinehint mustprogress nounwind uwtable
define linkonce_odr noundef i32 @_ZNK6icu_777UVector4sizeEv(ptr noundef nonnull align 8 dereferenceable(40) %0) #3 comdat align 2 {
  %2 = alloca ptr, align 8
  store ptr %0, ptr %2, align 8, !tbaa !10
  %3 = load ptr, ptr %2, align 8
  %4 = getelementptr inbounds nuw %"class.icu_77::UVector", ptr %3, i32 0, i32 1
  %5 = load i32, ptr %4, align 8, !tbaa !45
  ret i32 %5
}

; Function Attrs: mustprogress uwtable
define void @_ZN6icu_7720UnicodeSetStringSpanC2ERKS0_RKNS_7UVectorE(ptr noundef nonnull align 8 dereferenceable(392) %0, ptr noundef nonnull align 8 dereferenceable(392) %1, ptr noundef nonnull align 8 dereferenceable(40) %2) unnamed_addr #0 align 2 personality ptr @__gxx_personality_v0 {
  %4 = alloca ptr, align 8
  %5 = alloca ptr, align 8
  %6 = alloca ptr, align 8
  %7 = alloca ptr, align 8
  %8 = alloca i32, align 4
  %9 = alloca i32, align 4
  %10 = alloca i32, align 4
  %11 = alloca i32, align 4
  store ptr %0, ptr %4, align 8, !tbaa !3
  store ptr %1, ptr %5, align 8, !tbaa !3
  store ptr %2, ptr %6, align 8, !tbaa !10
  %12 = load ptr, ptr %4, align 8
  %13 = getelementptr inbounds nuw %"class.icu_77::UnicodeSetStringSpan", ptr %12, i32 0, i32 1
  %14 = load ptr, ptr %5, align 8, !tbaa !3
  %15 = getelementptr inbounds nuw %"class.icu_77::UnicodeSetStringSpan", ptr %14, i32 0, i32 1
  call void @_ZN6icu_7710UnicodeSetC1ERKS0_(ptr noundef nonnull align 8 dereferenceable(200) %13, ptr noundef nonnull align 8 dereferenceable(200) %15)
  %16 = getelementptr inbounds nuw %"class.icu_77::UnicodeSetStringSpan", ptr %12, i32 0, i32 2
  store ptr null, ptr %16, align 8, !tbaa !14
  %17 = getelementptr inbounds nuw %"class.icu_77::UnicodeSetStringSpan", ptr %12, i32 0, i32 3
  %18 = load ptr, ptr %6, align 8, !tbaa !10
  store ptr %18, ptr %17, align 8, !tbaa !10
  %19 = getelementptr inbounds nuw %"class.icu_77::UnicodeSetStringSpan", ptr %12, i32 0, i32 4
  store ptr null, ptr %19, align 8, !tbaa !25
  %20 = getelementptr inbounds nuw %"class.icu_77::UnicodeSetStringSpan", ptr %12, i32 0, i32 5
  store ptr null, ptr %20, align 8, !tbaa !26
  %21 = getelementptr inbounds nuw %"class.icu_77::UnicodeSetStringSpan", ptr %12, i32 0, i32 6
  store ptr null, ptr %21, align 8, !tbaa !27
  %22 = getelementptr inbounds nuw %"class.icu_77::UnicodeSetStringSpan", ptr %12, i32 0, i32 7
  %23 = load ptr, ptr %5, align 8, !tbaa !3
  %24 = getelementptr inbounds nuw %"class.icu_77::UnicodeSetStringSpan", ptr %23, i32 0, i32 7
  %25 = load i32, ptr %24, align 8, !tbaa !28
  store i32 %25, ptr %22, align 8, !tbaa !28
  %26 = getelementptr inbounds nuw %"class.icu_77::UnicodeSetStringSpan", ptr %12, i32 0, i32 8
  %27 = load ptr, ptr %5, align 8, !tbaa !3
  %28 = getelementptr inbounds nuw %"class.icu_77::UnicodeSetStringSpan", ptr %27, i32 0, i32 8
  %29 = load i32, ptr %28, align 4, !tbaa !29
  store i32 %29, ptr %26, align 4, !tbaa !29
  %30 = getelementptr inbounds nuw %"class.icu_77::UnicodeSetStringSpan", ptr %12, i32 0, i32 9
  %31 = load ptr, ptr %5, align 8, !tbaa !3
  %32 = getelementptr inbounds nuw %"class.icu_77::UnicodeSetStringSpan", ptr %31, i32 0, i32 9
  %33 = load i32, ptr %32, align 8, !tbaa !30
  store i32 %33, ptr %30, align 8, !tbaa !30
  %34 = getelementptr inbounds nuw %"class.icu_77::UnicodeSetStringSpan", ptr %12, i32 0, i32 10
  store i8 1, ptr %34, align 4, !tbaa !31
  %35 = load ptr, ptr %5, align 8, !tbaa !3
  %36 = getelementptr inbounds nuw %"class.icu_77::UnicodeSetStringSpan", ptr %35, i32 0, i32 2
  %37 = load ptr, ptr %36, align 8, !tbaa !14
  %38 = load ptr, ptr %5, align 8, !tbaa !3
  %39 = getelementptr inbounds nuw %"class.icu_77::UnicodeSetStringSpan", ptr %38, i32 0, i32 1
  %40 = icmp eq ptr %37, %39
  br i1 %40, label %41, label %44

41:                                               ; preds = %3
  %42 = getelementptr inbounds nuw %"class.icu_77::UnicodeSetStringSpan", ptr %12, i32 0, i32 1
  %43 = getelementptr inbounds nuw %"class.icu_77::UnicodeSetStringSpan", ptr %12, i32 0, i32 2
  store ptr %42, ptr %43, align 8, !tbaa !14
  br label %55

44:                                               ; preds = %3
  %45 = load ptr, ptr %5, align 8, !tbaa !3
  %46 = getelementptr inbounds nuw %"class.icu_77::UnicodeSetStringSpan", ptr %45, i32 0, i32 2
  %47 = load ptr, ptr %46, align 8, !tbaa !14
  %48 = invoke noundef ptr @_ZNK6icu_7710UnicodeSet5cloneEv(ptr noundef nonnull align 8 dereferenceable(200) %47)
          to label %49 unwind label %51

49:                                               ; preds = %44
  %50 = getelementptr inbounds nuw %"class.icu_77::UnicodeSetStringSpan", ptr %12, i32 0, i32 2
  store ptr %48, ptr %50, align 8, !tbaa !14
  br label %55

51:                                               ; preds = %44
  %52 = landingpad { ptr, i32 }
          cleanup
  %53 = extractvalue { ptr, i32 } %52, 0
  store ptr %53, ptr %7, align 8
  %54 = extractvalue { ptr, i32 } %52, 1
  store i32 %54, ptr %8, align 4
  br label %120

55:                                               ; preds = %49, %41
  call void @llvm.lifetime.start.p0(i64 4, ptr %9) #11
  %56 = getelementptr inbounds nuw %"class.icu_77::UnicodeSetStringSpan", ptr %12, i32 0, i32 3
  %57 = load ptr, ptr %56, align 8, !tbaa !32
  %58 = invoke noundef i32 @_ZNK6icu_777UVector4sizeEv(ptr noundef nonnull align 8 dereferenceable(40) %57)
          to label %59 unwind label %71

59:                                               ; preds = %55
  store i32 %58, ptr %9, align 4, !tbaa !12
  call void @llvm.lifetime.start.p0(i64 4, ptr %10) #11
  %60 = load i32, ptr %9, align 4, !tbaa !12
  %61 = mul nsw i32 %60, 8
  %62 = getelementptr inbounds nuw %"class.icu_77::UnicodeSetStringSpan", ptr %12, i32 0, i32 7
  %63 = load i32, ptr %62, align 8, !tbaa !28
  %64 = add nsw i32 %61, %63
  store i32 %64, ptr %10, align 4, !tbaa !12
  %65 = load i32, ptr %10, align 4, !tbaa !12
  %66 = icmp sle i32 %65, 128
  br i1 %66, label %67, label %75

67:                                               ; preds = %59
  %68 = getelementptr inbounds nuw %"class.icu_77::UnicodeSetStringSpan", ptr %12, i32 0, i32 11
  %69 = getelementptr inbounds [32 x i32], ptr %68, i64 0, i64 0
  %70 = getelementptr inbounds nuw %"class.icu_77::UnicodeSetStringSpan", ptr %12, i32 0, i32 4
  store ptr %69, ptr %70, align 8, !tbaa !25
  br label %92

71:                                               ; preds = %55
  %72 = landingpad { ptr, i32 }
          cleanup
  %73 = extractvalue { ptr, i32 } %72, 0
  store ptr %73, ptr %7, align 8
  %74 = extractvalue { ptr, i32 } %72, 1
  store i32 %74, ptr %8, align 4
  br label %119

75:                                               ; preds = %59
  %76 = load i32, ptr %10, align 4, !tbaa !12
  %77 = sext i32 %76 to i64
  %78 = invoke noalias ptr @uprv_malloc_77(i64 noundef %77) #12
          to label %79 unwind label %87

79:                                               ; preds = %75
  %80 = getelementptr inbounds nuw %"class.icu_77::UnicodeSetStringSpan", ptr %12, i32 0, i32 4
  store ptr %78, ptr %80, align 8, !tbaa !25
  %81 = getelementptr inbounds nuw %"class.icu_77::UnicodeSetStringSpan", ptr %12, i32 0, i32 4
  %82 = load ptr, ptr %81, align 8, !tbaa !25
  %83 = icmp eq ptr %82, null
  br i1 %83, label %84, label %91

84:                                               ; preds = %79
  %85 = getelementptr inbounds nuw %"class.icu_77::UnicodeSetStringSpan", ptr %12, i32 0, i32 9
  store i32 0, ptr %85, align 8, !tbaa !30
  %86 = getelementptr inbounds nuw %"class.icu_77::UnicodeSetStringSpan", ptr %12, i32 0, i32 8
  store i32 0, ptr %86, align 4, !tbaa !29
  store i32 1, ptr %11, align 4
  br label %116

87:                                               ; preds = %75
  %88 = landingpad { ptr, i32 }
          cleanup
  %89 = extractvalue { ptr, i32 } %88, 0
  store ptr %89, ptr %7, align 8
  %90 = extractvalue { ptr, i32 } %88, 1
  store i32 %90, ptr %8, align 4
  call void @llvm.lifetime.end.p0(i64 4, ptr %10) #11
  br label %119

91:                                               ; preds = %79
  br label %92

92:                                               ; preds = %91, %67
  %93 = getelementptr inbounds nuw %"class.icu_77::UnicodeSetStringSpan", ptr %12, i32 0, i32 4
  %94 = load ptr, ptr %93, align 8, !tbaa !25
  %95 = load i32, ptr %9, align 4, !tbaa !12
  %96 = sext i32 %95 to i64
  %97 = getelementptr inbounds i32, ptr %94, i64 %96
  %98 = getelementptr inbounds nuw %"class.icu_77::UnicodeSetStringSpan", ptr %12, i32 0, i32 5
  store ptr %97, ptr %98, align 8, !tbaa !26
  %99 = getelementptr inbounds nuw %"class.icu_77::UnicodeSetStringSpan", ptr %12, i32 0, i32 5
  %100 = load ptr, ptr %99, align 8, !tbaa !26
  %101 = load i32, ptr %9, align 4, !tbaa !12
  %102 = mul nsw i32 %101, 4
  %103 = sext i32 %102 to i64
  %104 = getelementptr inbounds i8, ptr %100, i64 %103
  %105 = getelementptr inbounds nuw %"class.icu_77::UnicodeSetStringSpan", ptr %12, i32 0, i32 6
  store ptr %104, ptr %105, align 8, !tbaa !27
  br label %106

106:                                              ; preds = %92
  %107 = getelementptr inbounds nuw %"class.icu_77::UnicodeSetStringSpan", ptr %12, i32 0, i32 4
  %108 = load ptr, ptr %107, align 8, !tbaa !25
  %109 = load ptr, ptr %5, align 8, !tbaa !3
  %110 = getelementptr inbounds nuw %"class.icu_77::UnicodeSetStringSpan", ptr %109, i32 0, i32 4
  %111 = load ptr, ptr %110, align 8, !tbaa !25
  %112 = load i32, ptr %10, align 4, !tbaa !12
  %113 = sext i32 %112 to i64
  call void @llvm.memcpy.p0.p0.i64(ptr align 4 %108, ptr align 4 %111, i64 %113, i1 false)
  br label %114

114:                                              ; preds = %106
  br label %115

115:                                              ; preds = %114
  store i32 0, ptr %11, align 4
  br label %116

116:                                              ; preds = %115, %84
  call void @llvm.lifetime.end.p0(i64 4, ptr %10) #11
  call void @llvm.lifetime.end.p0(i64 4, ptr %9) #11
  %117 = load i32, ptr %11, align 4
  switch i32 %117, label %126 [
    i32 0, label %118
    i32 1, label %118
  ]

118:                                              ; preds = %116, %116
  ret void

119:                                              ; preds = %87, %71
  call void @llvm.lifetime.end.p0(i64 4, ptr %9) #11
  br label %120

120:                                              ; preds = %119, %51
  call void @_ZN6icu_7710UnicodeSetD1Ev(ptr noundef nonnull align 8 dereferenceable(200) %13) #11
  br label %121

121:                                              ; preds = %120
  %122 = load ptr, ptr %7, align 8
  %123 = load i32, ptr %8, align 4
  %124 = insertvalue { ptr, i32 } poison, ptr %122, 0
  %125 = insertvalue { ptr, i32 } %124, i32 %123, 1
  resume { ptr, i32 } %125

126:                                              ; preds = %116
  unreachable
}