; Function Attrs: mustprogress uwtable
define void @_ZN6icu_7720UnicodeSetStringSpanC2ERKS0_RKNS_7UVectorE(ptr noundef nonnull align 8 dereferenceable(392) %0, ptr noundef nonnull align 8 dereferenceable(392) %1, ptr noundef nonnull align 8 dereferenceable(40) %2) unnamed_addr #0 align 2 personality ptr @__gxx_personality_v0 {
  %4 = getelementptr inbounds nuw i8, ptr %0, i64 8
  %5 = getelementptr inbounds nuw i8, ptr %1, i64 8
  tail call void @_ZN6icu_7710UnicodeSetC1ERKS0_(ptr noundef nonnull align 8 dereferenceable(200) %4, ptr noundef nonnull align 8 dereferenceable(200) %5)
  %6 = getelementptr inbounds nuw i8, ptr %0, i64 208
  store ptr null, ptr %6, align 8, !tbaa !3
  %7 = getelementptr inbounds nuw i8, ptr %0, i64 216
  store ptr %2, ptr %7, align 8, !tbaa !21
  %8 = getelementptr inbounds nuw i8, ptr %0, i64 224
  %9 = getelementptr inbounds nuw i8, ptr %0, i64 232
  %10 = getelementptr inbounds nuw i8, ptr %0, i64 240
  %11 = getelementptr inbounds nuw i8, ptr %0, i64 248
  %12 = getelementptr inbounds nuw i8, ptr %1, i64 248
  tail call void @llvm.memset.p0.i64(ptr noundef nonnull align 8 dereferenceable(24) %8, i8 0, i64 24, i1 false)
  %13 = load i32, ptr %12, align 8, !tbaa !34
  store i32 %13, ptr %11, align 8, !tbaa !34
  %14 = getelementptr inbounds nuw i8, ptr %0, i64 252
  %15 = getelementptr inbounds nuw i8, ptr %1, i64 252
  %16 = load i32, ptr %15, align 4, !tbaa !30
  store i32 %16, ptr %14, align 4, !tbaa !30
  %17 = getelementptr inbounds nuw i8, ptr %0, i64 256
  %18 = getelementptr inbounds nuw i8, ptr %1, i64 256
  %19 = load i32, ptr %18, align 8, !tbaa !35
  store i32 %19, ptr %17, align 8, !tbaa !35
  %20 = getelementptr inbounds nuw i8, ptr %0, i64 260
  store i8 1, ptr %20, align 4, !tbaa !22
  %21 = getelementptr inbounds nuw i8, ptr %1, i64 208
  %22 = load ptr, ptr %21, align 8, !tbaa !3
  %23 = icmp eq ptr %22, %5
  br i1 %23, label %28, label %24

24:                                               ; preds = %3
  %25 = invoke noundef ptr @_ZNK6icu_7710UnicodeSet5cloneEv(ptr noundef nonnull align 8 dereferenceable(200) %22)
          to label %._crit_edge unwind label %26

._crit_edge:                                      ; preds = %24
  %.pre = load ptr, ptr %7, align 8, !tbaa !23
  %.pre21 = load i32, ptr %11, align 8, !tbaa !34
  br label %28

26:                                               ; preds = %24
  %27 = landingpad { ptr, i32 }
          cleanup
  br label %57

28:                                               ; preds = %._crit_edge, %3
  %29 = phi i32 [ %13, %3 ], [ %.pre21, %._crit_edge ]
  %30 = phi ptr [ %2, %3 ], [ %.pre, %._crit_edge ]
  %storemerge = phi ptr [ %4, %3 ], [ %25, %._crit_edge ]
  store ptr %storemerge, ptr %6, align 8, !tbaa !3
  %31 = getelementptr inbounds nuw i8, ptr %30, i64 8
  %32 = load i32, ptr %31, align 8, !tbaa !24
  %33 = shl nsw i32 %32, 3
  %34 = add nsw i32 %33, %29
  %35 = icmp slt i32 %34, 129
  br i1 %35, label %36, label %38

36:                                               ; preds = %28
  %37 = getelementptr inbounds nuw i8, ptr %0, i64 264
  store ptr %37, ptr %8, align 8, !tbaa !36
  br label %46

38:                                               ; preds = %28
  %39 = zext nneg i32 %34 to i64
  %40 = invoke noalias ptr @uprv_malloc_77(i64 noundef %39) #13
          to label %41 unwind label %44

41:                                               ; preds = %38
  store ptr %40, ptr %8, align 8, !tbaa !36
  %42 = icmp eq ptr %40, null
  br i1 %42, label %43, label %46

43:                                               ; preds = %41
  store i32 0, ptr %17, align 8, !tbaa !35
  store i32 0, ptr %14, align 4, !tbaa !30
  br label %56

44:                                               ; preds = %38
  %45 = landingpad { ptr, i32 }
          cleanup
  br label %57

46:                                               ; preds = %41, %36
  %47 = phi ptr [ %40, %41 ], [ %37, %36 ]
  %48 = sext i32 %32 to i64
  %49 = getelementptr inbounds i32, ptr %47, i64 %48
  store ptr %49, ptr %9, align 8, !tbaa !37
  %50 = shl nsw i32 %32, 2
  %51 = sext i32 %50 to i64
  %52 = getelementptr inbounds i8, ptr %49, i64 %51
  store ptr %52, ptr %10, align 8, !tbaa !38
  %53 = getelementptr inbounds nuw i8, ptr %1, i64 224
  %54 = load ptr, ptr %53, align 8, !tbaa !36
  %55 = sext i32 %34 to i64
  tail call void @llvm.memcpy.p0.p0.i64(ptr nonnull align 4 %47, ptr align 4 %54, i64 %55, i1 false)
  br label %56

56:                                               ; preds = %46, %43
  ret void

57:                                               ; preds = %44, %26
  %.pn = phi { ptr, i32 } [ %45, %44 ], [ %27, %26 ]
  tail call void @_ZN6icu_7710UnicodeSetD1Ev(ptr noundef nonnull align 8 dereferenceable(200) %4) #12
  resume { ptr, i32 } %.pn
}